target datalayout = "e-m:e-p270:32:32-p271:32:32-p272:64:64-i64:64-i128:128-f80:128-n8:16:32:64-S128"
target triple = "x86_64-pc-linux-gnu"

%struct.Curves16Data = type { ptr, i32, i32, ptr }

; Function Attrs: nounwind uwtable
define internal ptr @CurvesAlloc(ptr noundef %0, i32 noundef %1, i32 noundef %2, ptr noundef %3) #0 {
  %5 = alloca ptr, align 8
  %6 = alloca ptr, align 8
  %7 = alloca i32, align 4
  %8 = alloca i32, align 4
  %9 = alloca ptr, align 8
  %10 = alloca i32, align 4
  %11 = alloca i32, align 4
  %12 = alloca ptr, align 8
  store ptr %0, ptr %6, align 8
  store i32 %1, ptr %7, align 4
  store i32 %2, ptr %8, align 4
  store ptr %3, ptr %9, align 8
  %13 = load ptr, ptr %6, align 8
  %14 = call ptr @_cmsMallocZero(ptr noundef %13, i32 noundef 24)
  store ptr %14, ptr %12, align 8
  %15 = load ptr, ptr %12, align 8
  %16 = icmp eq ptr %15, null
  br i1 %16, label %17, label %18

17:                                               ; preds = %4
  store ptr null, ptr %5, align 8
  br label %154

18:                                               ; preds = %4
  %19 = load i32, ptr %7, align 4
  %20 = load ptr, ptr %12, align 8
  %21 = getelementptr inbounds %struct.Curves16Data, ptr %20, i32 0, i32 1
  store i32 %19, ptr %21, align 8
  %22 = load i32, ptr %8, align 4
  %23 = load ptr, ptr %12, align 8
  %24 = getelementptr inbounds %struct.Curves16Data, ptr %23, i32 0, i32 2
  store i32 %22, ptr %24, align 4
  %25 = load ptr, ptr %6, align 8
  %26 = load i32, ptr %7, align 4
  %27 = call ptr @_cmsCalloc(ptr noundef %25, i32 noundef %26, i32 noundef 8)
  %28 = load ptr, ptr %12, align 8
  %29 = getelementptr inbounds %struct.Curves16Data, ptr %28, i32 0, i32 3
  store ptr %27, ptr %29, align 8
  %30 = load ptr, ptr %12, align 8
  %31 = getelementptr inbounds %struct.Curves16Data, ptr %30, i32 0, i32 3
  %32 = load ptr, ptr %31, align 8
  %33 = icmp eq ptr %32, null
  br i1 %33, label %34, label %37

34:                                               ; preds = %18
  %35 = load ptr, ptr %6, align 8
  %36 = load ptr, ptr %12, align 8
  call void @_cmsFree(ptr noundef %35, ptr noundef %36)
  store ptr null, ptr %5, align 8
  br label %154

37:                                               ; preds = %18
  store i32 0, ptr %10, align 4
  br label %38

38:                                               ; preds = %149, %37
  %39 = load i32, ptr %10, align 4
  %40 = load i32, ptr %7, align 4
  %41 = icmp ult i32 %39, %40
  br i1 %41, label %42, label %152

42:                                               ; preds = %38
  %43 = load ptr, ptr %6, align 8
  %44 = load i32, ptr %8, align 4
  %45 = call ptr @_cmsCalloc(ptr noundef %43, i32 noundef %44, i32 noundef 2)
  %46 = load ptr, ptr %12, align 8
  %47 = getelementptr inbounds %struct.Curves16Data, ptr %46, i32 0, i32 3
  %48 = load ptr, ptr %47, align 8
  %49 = load i32, ptr %10, align 4
  %50 = zext i32 %49 to i64
  %51 = getelementptr inbounds ptr, ptr %48, i64 %50
  store ptr %45, ptr %51, align 8
  %52 = load ptr, ptr %12, align 8
  %53 = getelementptr inbounds %struct.Curves16Data, ptr %52, i32 0, i32 3
  %54 = load ptr, ptr %53, align 8
  %55 = load i32, ptr %10, align 4
  %56 = zext i32 %55 to i64
  %57 = getelementptr inbounds ptr, ptr %54, i64 %56
  %58 = load ptr, ptr %57, align 8
  %59 = icmp eq ptr %58, null
  br i1 %59, label %60, label %84

60:                                               ; preds = %42
  store i32 0, ptr %11, align 4
  br label %61

61:                                               ; preds = %74, %60
  %62 = load i32, ptr %11, align 4
  %63 = load i32, ptr %10, align 4
  %64 = icmp ult i32 %62, %63
  br i1 %64, label %65, label %77

65:                                               ; preds = %61
  %66 = load ptr, ptr %6, align 8
  %67 = load ptr, ptr %12, align 8
  %68 = getelementptr inbounds %struct.Curves16Data, ptr %67, i32 0, i32 3
  %69 = load ptr, ptr %68, align 8
  %70 = load i32, ptr %11, align 4
  %71 = zext i32 %70 to i64
  %72 = getelementptr inbounds ptr, ptr %69, i64 %71
  %73 = load ptr, ptr %72, align 8
  call void @_cmsFree(ptr noundef %66, ptr noundef %73)
  br label %74

74:                                               ; preds = %65
  %75 = load i32, ptr %11, align 4
  %76 = add i32 %75, 1
  store i32 %76, ptr %11, align 4
  br label %61, !llvm.loop !48

77:                                               ; preds = %61
  %78 = load ptr, ptr %6, align 8
  %79 = load ptr, ptr %12, align 8
  %80 = getelementptr inbounds %struct.Curves16Data, ptr %79, i32 0, i32 3
  %81 = load ptr, ptr %80, align 8
  call void @_cmsFree(ptr noundef %78, ptr noundef %81)
  %82 = load ptr, ptr %6, align 8
  %83 = load ptr, ptr %12, align 8
  call void @_cmsFree(ptr noundef %82, ptr noundef %83)
  store ptr null, ptr %5, align 8
  br label %154

84:                                               ; preds = %42
  %85 = load i32, ptr %8, align 4
  %86 = icmp eq i32 %85, 256
  br i1 %86, label %87, label %120

87:                                               ; preds = %84
  store i32 0, ptr %11, align 4
  br label %88

88:                                               ; preds = %116, %87
  %89 = load i32, ptr %11, align 4
  %90 = load i32, ptr %8, align 4
  %91 = icmp ult i32 %89, %90
  br i1 %91, label %92, label %119

92:                                               ; preds = %88
  %93 = load ptr, ptr %9, align 8
  %94 = load i32, ptr %10, align 4
  %95 = zext i32 %94 to i64
  %96 = getelementptr inbounds ptr, ptr %93, i64 %95
  %97 = load ptr, ptr %96, align 8
  %98 = load i32, ptr %11, align 4
  %99 = trunc i32 %98 to i16
  %100 = zext i16 %99 to i32
  %101 = shl i32 %100, 8
  %102 = load i32, ptr %11, align 4
  %103 = or i32 %101, %102
  %104 = trunc i32 %103 to i16
  %105 = call zeroext i16 @cmsEvalToneCurve16(ptr noundef %97, i16 noundef zeroext %104)
  %106 = load ptr, ptr %12, align 8
  %107 = getelementptr inbounds %struct.Curves16Data, ptr %106, i32 0, i32 3
  %108 = load ptr, ptr %107, align 8
  %109 = load i32, ptr %10, align 4
  %110 = zext i32 %109 to i64
  %111 = getelementptr inbounds ptr, ptr %108, i64 %110
  %112 = load ptr, ptr %111, align 8
  %113 = load i32, ptr %11, align 4
  %114 = zext i32 %113 to i64
  %115 = getelementptr inbounds i16, ptr %112, i64 %114
  store i16 %105, ptr %115, align 2
  br label %116

116:                                              ; preds = %92
  %117 = load i32, ptr %11, align 4
  %118 = add i32 %117, 1
  store i32 %118, ptr %11, align 4
  br label %88, !llvm.loop !49

119:                                              ; preds = %88
  br label %148

120:                                              ; preds = %84
  store i32 0, ptr %11, align 4
  br label %121

121:                                              ; preds = %144, %120
  %122 = load i32, ptr %11, align 4
  %123 = load i32, ptr %8, align 4
  %124 = icmp ult i32 %122, %123
  br i1 %124, label %125, label %147

125:                                              ; preds = %121
  %126 = load ptr, ptr %9, align 8
  %127 = load i32, ptr %10, align 4
  %128 = zext i32 %127 to i64
  %129 = getelementptr inbounds ptr, ptr %126, i64 %128
  %130 = load ptr, ptr %129, align 8
  %131 = load i32, ptr %11, align 4
  %132 = trunc i32 %131 to i16
  %133 = call zeroext i16 @cmsEvalToneCurve16(ptr noundef %130, i16 noundef zeroext %132)
  %134 = load ptr, ptr %12, align 8
  %135 = getelementptr inbounds %struct.Curves16Data, ptr %134, i32 0, i32 3
  %136 = load ptr, ptr %135, align 8
  %137 = load i32, ptr %10, align 4
  %138 = zext i32 %137 to i64
  %139 = getelementptr inbounds ptr, ptr %136, i64 %138
  %140 = load ptr, ptr %139, align 8
  %141 = load i32, ptr %11, align 4
  %142 = zext i32 %141 to i64
  %143 = getelementptr inbounds i16, ptr %140, i64 %142
  store i16 %133, ptr %143, align 2
  br label %144

144:                                              ; preds = %125
  %145 = load i32, ptr %11, align 4
  %146 = add i32 %145, 1
  store i32 %146, ptr %11, align 4
  br label %121, !llvm.loop !50

147:                                              ; preds = %121
  br label %148

148:                                              ; preds = %147, %119
  br label %149

149:                                              ; preds = %148
  %150 = load i32, ptr %10, align 4
  %151 = add i32 %150, 1
  store i32 %151, ptr %10, align 4
  br label %38, !llvm.loop !51

152:                                              ; preds = %38
  %153 = load ptr, ptr %12, align 8
  store ptr %153, ptr %5, align 8
  br label %154

154:                                              ; preds = %152, %77, %34, %17
  %155 = load ptr, ptr %5, align 8
  ret ptr %155
}