; Function Attrs: nounwind uwtable
define internal fastcc ptr @CurvesAlloc(ptr noundef %0, i32 noundef %1, i32 noundef %2, ptr nocapture noundef readonly %3) unnamed_addr #0 {
  %5 = tail call ptr @_cmsMallocZero(ptr noundef %0, i32 noundef 24) #10
  %6 = icmp eq ptr %5, null
  br i1 %6, label %.loopexit61, label %7

7:                                                ; preds = %4
  %8 = getelementptr inbounds i8, ptr %5, i64 8
  store i32 %1, ptr %8, align 8
  %9 = getelementptr inbounds i8, ptr %5, i64 12
  store i32 %2, ptr %9, align 4
  %10 = tail call ptr @_cmsCalloc(ptr noundef %0, i32 noundef %1, i32 noundef 8) #10
  %11 = getelementptr inbounds i8, ptr %5, i64 16
  store ptr %10, ptr %11, align 8
  %12 = icmp eq ptr %10, null
  br i1 %12, label %.loopexit61.sink.split, label %.preheader60

.preheader60:                                     ; preds = %7
  %.not = icmp eq i32 %1, 0
  br i1 %.not, label %.loopexit61, label %.lr.ph66

.lr.ph66:                                         ; preds = %.preheader60
  switch i32 %2, label %.lr.ph66.split.split.us.preheader [
    i32 256, label %.lr.ph66.split.us
    i32 0, label %.lr.ph66.split.split
  ]

.lr.ph66.split.us:                                ; preds = %.lr.ph66, %.loopexit.us
  %.05365.us = phi i32 [ %31, %.loopexit.us ], [ 0, %.lr.ph66 ]
  %13 = tail call ptr @_cmsCalloc(ptr noundef %0, i32 noundef 256, i32 noundef 2) #10
  %14 = load ptr, ptr %11, align 8
  %15 = zext i32 %.05365.us to i64
  %16 = getelementptr inbounds ptr, ptr %14, i64 %15
  store ptr %13, ptr %16, align 8
  %17 = load ptr, ptr %11, align 8
  %18 = getelementptr inbounds ptr, ptr %17, i64 %15
  %19 = load ptr, ptr %18, align 8
  %20 = icmp eq ptr %19, null
  br i1 %20, label %.preheader, label %.preheader57.us

.preheader57.us:                                  ; preds = %.lr.ph66.split.us
  %21 = getelementptr inbounds ptr, ptr %3, i64 %15
  br label %22

22:                                               ; preds = %.preheader57.us, %22
  %indvars.iv83 = phi i64 [ 0, %.preheader57.us ], [ %indvars.iv.next84, %22 ]
  %23 = load ptr, ptr %21, align 8
  %24 = trunc i64 %indvars.iv83 to i16
  %25 = mul i16 %24, 257
  %26 = tail call zeroext i16 @cmsEvalToneCurve16(ptr noundef %23, i16 noundef zeroext %25) #10
  %27 = load ptr, ptr %11, align 8
  %28 = getelementptr inbounds ptr, ptr %27, i64 %15
  %29 = load ptr, ptr %28, align 8
  %30 = getelementptr inbounds i16, ptr %29, i64 %indvars.iv83
  store i16 %26, ptr %30, align 2
  %indvars.iv.next84 = add nuw nsw i64 %indvars.iv83, 1
  %exitcond86.not = icmp eq i64 %indvars.iv.next84, 256
  br i1 %exitcond86.not, label %.loopexit.us, label %22, !llvm.loop !50

.loopexit.us:                                     ; preds = %22
  %31 = add nuw i32 %.05365.us, 1
  %exitcond87.not = icmp eq i32 %31, %1
  br i1 %exitcond87.not, label %.loopexit61, label %.lr.ph66.split.us, !llvm.loop !51

.lr.ph66.split.split.us.preheader:                ; preds = %.lr.ph66
  %wide.trip.count = zext i32 %2 to i64
  br label %.lr.ph66.split.split.us

.lr.ph66.split.split.us:                          ; preds = %.lr.ph66.split.split.us.preheader, %..loopexit59_crit_edge.us
  %.05365.us67 = phi i32 [ %49, %..loopexit59_crit_edge.us ], [ 0, %.lr.ph66.split.split.us.preheader ]
  %32 = tail call ptr @_cmsCalloc(ptr noundef %0, i32 noundef %2, i32 noundef 2) #10
  %33 = load ptr, ptr %11, align 8
  %34 = zext i32 %.05365.us67 to i64
  %35 = getelementptr inbounds ptr, ptr %33, i64 %34
  store ptr %32, ptr %35, align 8
  %36 = load ptr, ptr %11, align 8
  %37 = getelementptr inbounds ptr, ptr %36, i64 %34
  %38 = load ptr, ptr %37, align 8
  %39 = icmp eq ptr %38, null
  br i1 %39, label %.preheader, label %.preheader58.us

.preheader58.us:                                  ; preds = %.lr.ph66.split.split.us
  %40 = getelementptr inbounds ptr, ptr %3, i64 %34
  br label %41

41:                                               ; preds = %.preheader58.us, %41
  %indvars.iv = phi i64 [ 0, %.preheader58.us ], [ %indvars.iv.next, %41 ]
  %42 = load ptr, ptr %40, align 8
  %43 = trunc i64 %indvars.iv to i16
  %44 = tail call zeroext i16 @cmsEvalToneCurve16(ptr noundef %42, i16 noundef zeroext %43) #10
  %45 = load ptr, ptr %11, align 8
  %46 = getelementptr inbounds ptr, ptr %45, i64 %34
  %47 = load ptr, ptr %46, align 8
  %48 = getelementptr inbounds i16, ptr %47, i64 %indvars.iv
  store i16 %44, ptr %48, align 2
  %indvars.iv.next = add nuw nsw i64 %indvars.iv, 1
  %exitcond.not = icmp eq i64 %indvars.iv.next, %wide.trip.count
  br i1 %exitcond.not, label %..loopexit59_crit_edge.us, label %41, !llvm.loop !52

..loopexit59_crit_edge.us:                        ; preds = %41
  %49 = add nuw i32 %.05365.us67, 1
  %exitcond81.not = icmp eq i32 %49, %1
  br i1 %exitcond81.not, label %.loopexit61, label %.lr.ph66.split.split.us, !llvm.loop !51

.lr.ph66.split.split:                             ; preds = %.lr.ph66, %.preheader58
  %.05365 = phi i32 [ %63, %.preheader58 ], [ %2, %.lr.ph66 ]
  %50 = tail call ptr @_cmsCalloc(ptr noundef %0, i32 noundef 0, i32 noundef 2) #10
  %51 = load ptr, ptr %11, align 8
  %52 = zext i32 %.05365 to i64
  %53 = getelementptr inbounds ptr, ptr %51, i64 %52
  store ptr %50, ptr %53, align 8
  %54 = load ptr, ptr %11, align 8
  %55 = getelementptr inbounds ptr, ptr %54, i64 %52
  %56 = load ptr, ptr %55, align 8
  %57 = icmp eq ptr %56, null
  br i1 %57, label %.preheader, label %.preheader58

.preheader:                                       ; preds = %.lr.ph66.split.split, %.lr.ph66.split.us, %.lr.ph66.split.split.us
  %58 = phi ptr [ %36, %.lr.ph66.split.split.us ], [ %17, %.lr.ph66.split.us ], [ %54, %.lr.ph66.split.split ]
  %.us-phi = phi i32 [ %.05365.us67, %.lr.ph66.split.split.us ], [ %.05365.us, %.lr.ph66.split.us ], [ %.05365, %.lr.ph66.split.split ]
  %.not72 = icmp eq i32 %.us-phi, 0
  br i1 %.not72, label %._crit_edge, label %.lr.ph.preheader

.lr.ph.preheader:                                 ; preds = %.preheader
  %wide.trip.count91 = zext i32 %.us-phi to i64
  br label %.lr.ph

.lr.ph:                                           ; preds = %.lr.ph.preheader, %.lr.ph
  %indvars.iv88 = phi i64 [ 0, %.lr.ph.preheader ], [ %indvars.iv.next89, %.lr.ph ]
  %59 = load ptr, ptr %11, align 8
  %60 = getelementptr inbounds ptr, ptr %59, i64 %indvars.iv88
  %61 = load ptr, ptr %60, align 8
  tail call void @_cmsFree(ptr noundef %0, ptr noundef %61) #10
  %indvars.iv.next89 = add nuw nsw i64 %indvars.iv88, 1
  %exitcond92.not = icmp eq i64 %indvars.iv.next89, %wide.trip.count91
  br i1 %exitcond92.not, label %._crit_edge.loopexit, label %.lr.ph, !llvm.loop !53

._crit_edge.loopexit:                             ; preds = %.lr.ph
  %.pre = load ptr, ptr %11, align 8
  br label %._crit_edge

._crit_edge:                                      ; preds = %._crit_edge.loopexit, %.preheader
  %62 = phi ptr [ %.pre, %._crit_edge.loopexit ], [ %58, %.preheader ]
  tail call void @_cmsFree(ptr noundef %0, ptr noundef %62) #10
  br label %.loopexit61.sink.split

.preheader58:                                     ; preds = %.lr.ph66.split.split
  %63 = add nuw i32 %.05365, 1
  %exitcond82.not = icmp eq i32 %63, %1
  br i1 %exitcond82.not, label %.loopexit61, label %.lr.ph66.split.split, !llvm.loop !51

.loopexit61.sink.split:                           ; preds = %7, %._crit_edge
  tail call void @_cmsFree(ptr noundef %0, ptr noundef nonnull %5) #10
  br label %.loopexit61

.loopexit61:                                      ; preds = %.preheader58, %.loopexit.us, %..loopexit59_crit_edge.us, %.loopexit61.sink.split, %.preheader60, %4
  %.0 = phi ptr [ null, %4 ], [ %5, %.preheader60 ], [ null, %.loopexit61.sink.split ], [ %5, %..loopexit59_crit_edge.us ], [ %5, %.loopexit.us ], [ %5, %.preheader58 ]
  ret ptr %.0
}